target datalayout = "e-m:e-p270:32:32-p271:32:32-p272:64:64-i64:64-i128:128-f80:128-n8:16:32:64-S128"
target triple = "x86_64-pc-linux-gnu"

%struct.DataHeader = type { %struct.MappedData, %struct.UDataInfo }
%struct.MappedData = type { i16, i8, i8 }
%struct.UDataInfo = type { i16, i16, i8, i8, i8, i8, [4 x i8], [4 x i8], [4 x i8] }

; Function Attrs: mustprogress nounwind uwtable
define zeroext i16 @udata_getHeaderSize_77(ptr noundef %0) #0 {
  %2 = alloca i16, align 2
  %3 = alloca ptr, align 8
  %4 = alloca i16, align 2
  store ptr %0, ptr %3, align 8, !tbaa !3
  %5 = load ptr, ptr %3, align 8, !tbaa !3
  %6 = icmp eq ptr %5, null
  br i1 %6, label %7, label %8

7:                                                ; preds = %1
  store i16 0, ptr %2, align 2
  br label %33

8:                                                ; preds = %1
  %9 = load ptr, ptr %3, align 8, !tbaa !3
  %10 = getelementptr inbounds nuw %struct.DataHeader, ptr %9, i32 0, i32 1
  %11 = getelementptr inbounds nuw %struct.UDataInfo, ptr %10, i32 0, i32 2
  %12 = load i8, ptr %11, align 2, !tbaa !7
  %13 = zext i8 %12 to i32
  %14 = icmp eq i32 %13, 0
  br i1 %14, label %15, label %20

15:                                               ; preds = %8
  %16 = load ptr, ptr %3, align 8, !tbaa !3
  %17 = getelementptr inbounds nuw %struct.DataHeader, ptr %16, i32 0, i32 0
  %18 = getelementptr inbounds nuw %struct.MappedData, ptr %17, i32 0, i32 0
  %19 = load i16, ptr %18, align 2, !tbaa !12
  store i16 %19, ptr %2, align 2
  br label %33

20:                                               ; preds = %8
  call void @llvm.lifetime.start.p0(i64 2, ptr %4) #5
  %21 = load ptr, ptr %3, align 8, !tbaa !3
  %22 = getelementptr inbounds nuw %struct.DataHeader, ptr %21, i32 0, i32 0
  %23 = getelementptr inbounds nuw %struct.MappedData, ptr %22, i32 0, i32 0
  %24 = load i16, ptr %23, align 2, !tbaa !12
  store i16 %24, ptr %4, align 2, !tbaa !13
  %25 = load i16, ptr %4, align 2, !tbaa !13
  %26 = zext i16 %25 to i32
  %27 = shl i32 %26, 8
  %28 = load i16, ptr %4, align 2, !tbaa !13
  %29 = zext i16 %28 to i32
  %30 = ashr i32 %29, 8
  %31 = or i32 %27, %30
  %32 = trunc i32 %31 to i16
  store i16 %32, ptr %2, align 2
  call void @llvm.lifetime.end.p0(i64 2, ptr %4) #5
  br label %33

33:                                               ; preds = %20, %15, %7
  %34 = load i16, ptr %2, align 2
  ret i16 %34
}